; Function Attrs: nounwind sspstrong uwtable
define hidden void @rb_free_static_symid_str() local_unnamed_addr #0 {
  %1 = alloca i32, align 4
  call void @llvm.lifetime.start.p0(i64 4, ptr nonnull %1) #19
  %2 = load ptr, ptr @ruby_single_main_ractor, align 8, !tbaa !24
  %.not.i.i = icmp eq ptr %2, null
  br i1 %.not.i.i, label %3, label %rb_vm_lock_enter.exit

3:                                                ; preds = %0
  call void @rb_vm_lock_enter_body(ptr noundef nonnull %1) #19
  br label %rb_vm_lock_enter.exit

rb_vm_lock_enter.exit:                            ; preds = %0, %3
  %4 = load ptr, ptr getelementptr inbounds nuw (i8, ptr @ruby_global_symbols, i64 8), align 8, !tbaa !15
  call void @rb_st_free_table(ptr noundef %4) #19
  %5 = load ptr, ptr @ruby_single_main_ractor, align 8, !tbaa !24
  %.not.i.i1 = icmp eq ptr %5, null
  br i1 %.not.i.i1, label %6, label %rb_vm_lock_leave.exit

6:                                                ; preds = %rb_vm_lock_enter.exit
  call void @rb_vm_lock_leave_body(ptr noundef nonnull %1) #19
  br label %rb_vm_lock_leave.exit

rb_vm_lock_leave.exit:                            ; preds = %rb_vm_lock_enter.exit, %6
  call void @llvm.lifetime.end.p0(i64 4, ptr nonnull %1) #19
  ret void
}